; Function Attrs: mustprogress uwtable
define noundef zeroext i1 @_ZN3g2o11writeVectorERKNSt7__cxx1112basic_stringIcSt11char_traitsIcESaIcEEEPKdi(ptr noundef nonnull align 8 dereferenceable(32) %0, ptr nocapture noundef readonly %1, i32 noundef %2) local_unnamed_addr #0 personality ptr @__gxx_personality_v0 {
  %4 = alloca %"class.std::basic_ofstream", align 8
  %5 = tail call noundef ptr @_ZNKSt7__cxx1112basic_stringIcSt11char_traitsIcESaIcEE5c_strEv(ptr noundef nonnull align 8 dereferenceable(32) %0) #11
  call void @_ZNSt14basic_ofstreamIcSt11char_traitsIcEEC1EPKcSt13_Ios_Openmode(ptr noundef nonnull align 8 dereferenceable(248) %4, ptr noundef %5, i32 noundef 16)
  %6 = invoke noundef nonnull align 8 dereferenceable(8) ptr @_ZNSolsEPFRSt8ios_baseS0_E(ptr noundef nonnull align 8 dereferenceable(8) %4, ptr noundef nonnull @_ZSt5fixedRSt8ios_base)
          to label %.preheader unwind label %.loopexit.split-lp

.preheader:                                       ; preds = %3
  %7 = icmp sgt i32 %2, 0
  br i1 %7, label %.lr.ph, label %._crit_edge

.lr.ph:                                           ; preds = %.preheader, %13
  %.08 = phi i32 [ %14, %13 ], [ 0, %.preheader ]
  %.067 = phi ptr [ %8, %13 ], [ %1, %.preheader ]
  %8 = getelementptr inbounds i8, ptr %.067, i64 8
  %9 = load double, ptr %.067, align 8
  %10 = invoke noundef nonnull align 8 dereferenceable(8) ptr @_ZNSolsEd(ptr noundef nonnull align 8 dereferenceable(8) %4, double noundef %9)
          to label %11 unwind label %.loopexit

11:                                               ; preds = %.lr.ph
  %12 = invoke noundef nonnull align 8 dereferenceable(8) ptr @_ZNSolsEPFRSoS_E(ptr noundef nonnull align 8 dereferenceable(8) %10, ptr noundef nonnull @_ZSt4endlIcSt11char_traitsIcEERSt13basic_ostreamIT_T0_ES6_)
          to label %13 unwind label %.loopexit

13:                                               ; preds = %11
  %14 = add nuw nsw i32 %.08, 1
  %exitcond.not = icmp eq i32 %14, %2
  br i1 %exitcond.not, label %._crit_edge, label %.lr.ph, !llvm.loop !4

.loopexit:                                        ; preds = %.lr.ph, %11
  %lpad.loopexit = landingpad { ptr, i32 }
          cleanup
  br label %15

.loopexit.split-lp:                               ; preds = %3, %._crit_edge
  %lpad.loopexit.split-lp = landingpad { ptr, i32 }
          cleanup
  br label %15

15:                                               ; preds = %.loopexit.split-lp, %.loopexit
  %lpad.phi = phi { ptr, i32 } [ %lpad.loopexit, %.loopexit ], [ %lpad.loopexit.split-lp, %.loopexit.split-lp ]
  call void @_ZNSt14basic_ofstreamIcSt11char_traitsIcEED1Ev(ptr noundef nonnull align 8 dereferenceable(248) %4) #11
  resume { ptr, i32 } %lpad.phi

._crit_edge:                                      ; preds = %13, %.preheader
  %16 = load ptr, ptr %4, align 8
  %17 = getelementptr i8, ptr %16, i64 -24
  %18 = load i64, ptr %17, align 8
  %19 = getelementptr inbounds i8, ptr %4, i64 %18
  %20 = invoke noundef zeroext i1 @_ZNKSt9basic_iosIcSt11char_traitsIcEE4goodEv(ptr noundef nonnull align 8 dereferenceable(264) %19)
          to label %21 unwind label %.loopexit.split-lp

21:                                               ; preds = %._crit_edge
  call void @_ZNSt14basic_ofstreamIcSt11char_traitsIcEED1Ev(ptr noundef nonnull align 8 dereferenceable(248) %4) #11
  ret i1 %20
}